target datalayout = "e-m:e-p270:32:32-p271:32:32-p272:64:64-i64:64-i128:128-f80:128-n8:16:32:64-S128"
target triple = "x86_64-pc-linux-gnu"

%struct.H5FD_log_fapl_t = type { ptr, i64, i64 }
%struct.H5FD_log_t = type { %struct.H5FD_t, i32, i64, i64, i8, [1024 x i8], i64, i64, i8, ptr, ptr, ptr, i64, i64, i64, i64, double, double, double, double, i64, ptr, %struct.H5FD_log_fapl_t }
%struct.H5FD_t = type { i64, ptr, i64, i32, i64, i64, i64, i64, i64, i8 }
%struct.H5_timer_t = type { %struct.H5_timevals_t, %struct.H5_timevals_t, %struct.H5_timevals_t, i8 }
%struct.H5_timevals_t = type { double, double, double }

@H5FD_init_g = external global i8, align 1
@H5_libterm_g = external global i8, align 1
@.str = private unnamed_addr constant [101 x i8] c"generated/home/dtcxzyw/WorkSpace/Projects/compilers/llvm-opt-benchmark/bench/hdf5/hdf5/src/H5FDlog.c\00", align 1
@.str.14 = private unnamed_addr constant [37 x i8] c"%s, errno = %d, error message = '%s'\00", align 1
@H5E_IO_g = external global i64, align 8
@.str.57 = private unnamed_addr constant [13 x i8] c" (%fs @ %f)\0A\00", align 1
@.str.58 = private unnamed_addr constant [2 x i8] c"\0A\00", align 1
@__func__.H5FD__log_truncate = private unnamed_addr constant [19 x i8] c"H5FD__log_truncate\00", align 1
@H5E_SEEKERROR_g = external global i64, align 8
@.str.64 = private unnamed_addr constant [31 x i8] c"unable to extend file properly\00", align 1
@.str.65 = private unnamed_addr constant [19 x i8] c"Truncate: To %10lu\00", align 1

; Function Attrs: nounwind uwtable
define internal i32 @H5FD__log_truncate(ptr noundef %0, i64 noundef %1, i1 noundef zeroext %2) #0 {
  %4 = alloca i32, align 4
  %5 = alloca ptr, align 8
  %6 = alloca i64, align 8
  %7 = alloca i8, align 1
  %8 = alloca ptr, align 8
  %9 = alloca i32, align 4
  %10 = alloca i8, align 1
  %11 = alloca %struct.H5_timer_t, align 8
  %12 = alloca %struct.H5_timevals_t, align 8
  %13 = alloca i32, align 4
  %14 = alloca i32, align 4
  store ptr %0, ptr %5, align 8, !tbaa !24
  store i64 %1, ptr %6, align 8, !tbaa !11
  %15 = zext i1 %2 to i8
  store i8 %15, ptr %7, align 1, !tbaa !7
  call void @llvm.lifetime.start.p0(i64 8, ptr %8) #9
  %16 = load ptr, ptr %5, align 8, !tbaa !24
  store ptr %16, ptr %8, align 8, !tbaa !26
  call void @llvm.lifetime.start.p0(i64 4, ptr %9) #9
  store i32 0, ptr %9, align 4, !tbaa !3
  call void @llvm.lifetime.start.p0(i64 1, ptr %10) #9
  store i8 0, ptr %10, align 1, !tbaa !7
  %17 = load i8, ptr @H5FD_init_g, align 1, !tbaa !7, !range !9, !noundef !10
  %18 = trunc i8 %17 to i1
  br i1 %18, label %23, label %19

19:                                               ; preds = %3
  %20 = load i8, ptr @H5_libterm_g, align 1, !tbaa !7, !range !9, !noundef !10
  %21 = trunc i8 %20 to i1
  %22 = xor i1 %21, true
  br label %23

23:                                               ; preds = %19, %3
  %24 = phi i1 [ true, %3 ], [ %22, %19 ]
  %25 = xor i1 %24, true
  %26 = xor i1 %25, true
  %27 = zext i1 %26 to i32
  %28 = sext i32 %27 to i64
  %29 = call i64 @llvm.expect.i64(i64 %28, i64 1)
  %30 = icmp ne i64 %29, 0
  br i1 %30, label %31, label %174

31:                                               ; preds = %23
  %32 = load ptr, ptr %8, align 8, !tbaa !26
  %33 = getelementptr inbounds nuw %struct.H5FD_log_t, ptr %32, i32 0, i32 2
  %34 = load i64, ptr %33, align 8, !tbaa !66
  %35 = icmp ne i64 %34, -1
  br i1 %35, label %36, label %44

36:                                               ; preds = %31
  %37 = load ptr, ptr %8, align 8, !tbaa !26
  %38 = getelementptr inbounds nuw %struct.H5FD_log_t, ptr %37, i32 0, i32 2
  %39 = load i64, ptr %38, align 8, !tbaa !66
  %40 = load ptr, ptr %8, align 8, !tbaa !26
  %41 = getelementptr inbounds nuw %struct.H5FD_log_t, ptr %40, i32 0, i32 3
  %42 = load i64, ptr %41, align 8, !tbaa !41
  %43 = icmp eq i64 %39, %42
  br i1 %43, label %172, label %44

44:                                               ; preds = %36, %31
  call void @llvm.lifetime.start.p0(i64 80, ptr %11) #9
  call void @llvm.lifetime.start.p0(i64 24, ptr %12) #9
  %45 = call i32 @H5_timer_init(ptr noundef %11)
  %46 = load ptr, ptr %8, align 8, !tbaa !26
  %47 = getelementptr inbounds nuw %struct.H5FD_log_t, ptr %46, i32 0, i32 22
  %48 = getelementptr inbounds nuw %struct.H5FD_log_fapl_t, ptr %47, i32 0, i32 1
  %49 = load i64, ptr %48, align 8, !tbaa !46
  %50 = and i64 %49, 65536
  %51 = icmp ne i64 %50, 0
  br i1 %51, label %52, label %54

52:                                               ; preds = %44
  %53 = call i32 @H5_timer_start(ptr noundef %11)
  br label %54

54:                                               ; preds = %52, %44
  %55 = load ptr, ptr %8, align 8, !tbaa !26
  %56 = getelementptr inbounds nuw %struct.H5FD_log_t, ptr %55, i32 0, i32 1
  %57 = load i32, ptr %56, align 8, !tbaa !32
  %58 = load ptr, ptr %8, align 8, !tbaa !26
  %59 = getelementptr inbounds nuw %struct.H5FD_log_t, ptr %58, i32 0, i32 2
  %60 = load i64, ptr %59, align 8, !tbaa !66
  %61 = call i32 @ftruncate64(i32 noundef %57, i64 noundef %60) #9
  %62 = icmp eq i32 -1, %61
  br i1 %62, label %63, label %90

63:                                               ; preds = %54
  call void @llvm.lifetime.start.p0(i64 4, ptr %13) #9
  %64 = call ptr @__errno_location() #11
  %65 = load i32, ptr %64, align 4, !tbaa !3
  store i32 %65, ptr %13, align 4, !tbaa !3
  br label %66

66:                                               ; preds = %63
  br label %67

67:                                               ; preds = %66
  br label %68

68:                                               ; preds = %67
  %69 = load i64, ptr @H5E_IO_g, align 8, !tbaa !11
  %70 = load i64, ptr @H5E_SEEKERROR_g, align 8, !tbaa !11
  %71 = load i32, ptr %13, align 4, !tbaa !3
  %72 = load i32, ptr %13, align 4, !tbaa !3
  %73 = call ptr @strerror(i32 noundef %72) #9
  %74 = call i32 (ptr, ptr, i32, i64, i64, ptr, ...) @H5E_printf_stack(ptr noundef @.str, ptr noundef @__func__.H5FD__log_truncate, i32 noundef 1564, i64 noundef %69, i64 noundef %70, ptr noundef @.str.14, ptr noundef @.str.64, i32 noundef %71, ptr noundef %73)
  br label %75

75:                                               ; preds = %68
  br label %76

76:                                               ; preds = %75
  store i8 1, ptr %10, align 1, !tbaa !7
  %77 = load i8, ptr %10, align 1, !tbaa !7, !range !9, !noundef !10
  %78 = trunc i8 %77 to i1
  %79 = zext i1 %78 to i8
  store i8 %79, ptr %10, align 1, !tbaa !7
  br label %80

80:                                               ; preds = %76
  br label %81

81:                                               ; preds = %80
  br label %82

82:                                               ; preds = %81
  store i32 -1, ptr %9, align 4, !tbaa !3
  store i32 10, ptr %14, align 4
  br label %87

83:                                               ; No predecessors!
  br label %84

84:                                               ; preds = %83
  br label %85

85:                                               ; preds = %84
  br label %86

86:                                               ; preds = %85
  store i32 0, ptr %14, align 4
  br label %87

87:                                               ; preds = %82, %86
  call void @llvm.lifetime.end.p0(i64 4, ptr %13) #9
  %88 = load i32, ptr %14, align 4
  switch i32 %88, label %169 [
    i32 0, label %89
  ]

89:                                               ; preds = %87
  br label %90

90:                                               ; preds = %89, %54
  %91 = load ptr, ptr %8, align 8, !tbaa !26
  %92 = getelementptr inbounds nuw %struct.H5FD_log_t, ptr %91, i32 0, i32 22
  %93 = getelementptr inbounds nuw %struct.H5FD_log_fapl_t, ptr %92, i32 0, i32 1
  %94 = load i64, ptr %93, align 8, !tbaa !46
  %95 = and i64 %94, 65536
  %96 = icmp ne i64 %95, 0
  br i1 %96, label %97, label %99

97:                                               ; preds = %90
  %98 = call i32 @H5_timer_stop(ptr noundef %11)
  br label %99

99:                                               ; preds = %97, %90
  %100 = load ptr, ptr %8, align 8, !tbaa !26
  %101 = getelementptr inbounds nuw %struct.H5FD_log_t, ptr %100, i32 0, i32 22
  %102 = getelementptr inbounds nuw %struct.H5FD_log_fapl_t, ptr %101, i32 0, i32 1
  %103 = load i64, ptr %102, align 8, !tbaa !46
  %104 = and i64 %103, 1024
  %105 = icmp ne i64 %104, 0
  br i1 %105, label %106, label %111

106:                                              ; preds = %99
  %107 = load ptr, ptr %8, align 8, !tbaa !26
  %108 = getelementptr inbounds nuw %struct.H5FD_log_t, ptr %107, i32 0, i32 15
  %109 = load i64, ptr %108, align 8, !tbaa !61
  %110 = add i64 %109, 1
  store i64 %110, ptr %108, align 8, !tbaa !61
  br label %111

111:                                              ; preds = %106, %99
  %112 = load ptr, ptr %8, align 8, !tbaa !26
  %113 = getelementptr inbounds nuw %struct.H5FD_log_t, ptr %112, i32 0, i32 22
  %114 = getelementptr inbounds nuw %struct.H5FD_log_fapl_t, ptr %113, i32 0, i32 1
  %115 = load i64, ptr %114, align 8, !tbaa !46
  %116 = and i64 %115, 65536
  %117 = icmp ne i64 %116, 0
  br i1 %117, label %118, label %126

118:                                              ; preds = %111
  %119 = call i32 @H5_timer_get_times(ptr noundef byval(%struct.H5_timer_t) align 8 %11, ptr noundef %12)
  %120 = getelementptr inbounds nuw %struct.H5_timevals_t, ptr %12, i32 0, i32 2
  %121 = load double, ptr %120, align 8, !tbaa !55
  %122 = load ptr, ptr %8, align 8, !tbaa !26
  %123 = getelementptr inbounds nuw %struct.H5FD_log_t, ptr %122, i32 0, i32 19
  %124 = load double, ptr %123, align 8, !tbaa !65
  %125 = fadd double %124, %121
  store double %125, ptr %123, align 8, !tbaa !65
  br label %126

126:                                              ; preds = %118, %111
  %127 = load ptr, ptr %8, align 8, !tbaa !26
  %128 = getelementptr inbounds nuw %struct.H5FD_log_t, ptr %127, i32 0, i32 22
  %129 = getelementptr inbounds nuw %struct.H5FD_log_fapl_t, ptr %128, i32 0, i32 1
  %130 = load i64, ptr %129, align 8, !tbaa !46
  %131 = and i64 %130, 1
  %132 = icmp ne i64 %131, 0
  br i1 %132, label %133, label %163

133:                                              ; preds = %126
  %134 = load ptr, ptr %8, align 8, !tbaa !26
  %135 = getelementptr inbounds nuw %struct.H5FD_log_t, ptr %134, i32 0, i32 21
  %136 = load ptr, ptr %135, align 8, !tbaa !53
  %137 = load ptr, ptr %8, align 8, !tbaa !26
  %138 = getelementptr inbounds nuw %struct.H5FD_log_t, ptr %137, i32 0, i32 2
  %139 = load i64, ptr %138, align 8, !tbaa !66
  %140 = call i32 (ptr, ptr, ...) @fprintf(ptr noundef %136, ptr noundef @.str.65, i64 noundef %139) #9
  %141 = load ptr, ptr %8, align 8, !tbaa !26
  %142 = getelementptr inbounds nuw %struct.H5FD_log_t, ptr %141, i32 0, i32 22
  %143 = getelementptr inbounds nuw %struct.H5FD_log_fapl_t, ptr %142, i32 0, i32 1
  %144 = load i64, ptr %143, align 8, !tbaa !46
  %145 = and i64 %144, 65536
  %146 = icmp ne i64 %145, 0
  br i1 %146, label %147, label %157

147:                                              ; preds = %133
  %148 = load ptr, ptr %8, align 8, !tbaa !26
  %149 = getelementptr inbounds nuw %struct.H5FD_log_t, ptr %148, i32 0, i32 21
  %150 = load ptr, ptr %149, align 8, !tbaa !53
  %151 = getelementptr inbounds nuw %struct.H5_timevals_t, ptr %12, i32 0, i32 2
  %152 = load double, ptr %151, align 8, !tbaa !55
  %153 = getelementptr inbounds nuw %struct.H5_timer_t, ptr %11, i32 0, i32 0
  %154 = getelementptr inbounds nuw %struct.H5_timevals_t, ptr %153, i32 0, i32 2
  %155 = load double, ptr %154, align 8, !tbaa !77
  %156 = call i32 (ptr, ptr, ...) @fprintf(ptr noundef %150, ptr noundef @.str.57, double noundef %152, double noundef %155) #9
  br label %162

157:                                              ; preds = %133
  %158 = load ptr, ptr %8, align 8, !tbaa !26
  %159 = getelementptr inbounds nuw %struct.H5FD_log_t, ptr %158, i32 0, i32 21
  %160 = load ptr, ptr %159, align 8, !tbaa !53
  %161 = call i32 (ptr, ptr, ...) @fprintf(ptr noundef %160, ptr noundef @.str.58) #9
  br label %162

162:                                              ; preds = %157, %147
  br label %163

163:                                              ; preds = %162, %126
  %164 = load ptr, ptr %8, align 8, !tbaa !26
  %165 = getelementptr inbounds nuw %struct.H5FD_log_t, ptr %164, i32 0, i32 2
  %166 = load i64, ptr %165, align 8, !tbaa !66
  %167 = load ptr, ptr %8, align 8, !tbaa !26
  %168 = getelementptr inbounds nuw %struct.H5FD_log_t, ptr %167, i32 0, i32 3
  store i64 %166, ptr %168, align 8, !tbaa !41
  store i32 0, ptr %14, align 4
  br label %169

169:                                              ; preds = %163, %87
  call void @llvm.lifetime.end.p0(i64 24, ptr %12) #9
  call void @llvm.lifetime.end.p0(i64 80, ptr %11) #9
  %170 = load i32, ptr %14, align 4
  switch i32 %170, label %176 [
    i32 0, label %171
    i32 10, label %173
  ]

171:                                              ; preds = %169
  br label %172

172:                                              ; preds = %171, %36
  br label %173

173:                                              ; preds = %172, %169
  br label %174

174:                                              ; preds = %173, %23
  %175 = load i32, ptr %9, align 4, !tbaa !3
  store i32 %175, ptr %4, align 4
  store i32 1, ptr %14, align 4
  br label %176

176:                                              ; preds = %174, %169
  call void @llvm.lifetime.end.p0(i64 1, ptr %10) #9
  call void @llvm.lifetime.end.p0(i64 4, ptr %9) #9
  call void @llvm.lifetime.end.p0(i64 8, ptr %8) #9
  %177 = load i32, ptr %4, align 4
  ret i32 %177
}