; Function Attrs: nounwind uwtable
define internal range(i32 -1, 1) i32 @H5FD__log_truncate(ptr noundef captures(none) %0, i64 %1, i1 zeroext %2) #0 {
  %4 = alloca %struct.H5_timer_t, align 8
  %5 = alloca %struct.H5_timevals_t, align 8
  %6 = load i8, ptr @H5FD_init_g, align 1, !tbaa !3, !range !7, !noundef !8
  %7 = trunc nuw i8 %6 to i1
  %8 = load i8, ptr @H5_libterm_g, align 1, !range !7
  %9 = trunc nuw i8 %8 to i1
  %10 = xor i1 %9, true
  %11 = select i1 %7, i1 true, i1 %10
  br i1 %11, label %12, label %82, !prof !9

12:                                               ; preds = %3
  %13 = getelementptr inbounds nuw i8, ptr %0, i64 88
  %14 = load i64, ptr %13, align 8, !tbaa !57
  %.not = icmp eq i64 %14, -1
  br i1 %.not, label %19, label %15

15:                                               ; preds = %12
  %16 = getelementptr inbounds nuw i8, ptr %0, i64 96
  %17 = load i64, ptr %16, align 8, !tbaa !32
  %18 = icmp eq i64 %14, %17
  br i1 %18, label %82, label %19

19:                                               ; preds = %15, %12
  call void @llvm.lifetime.start.p0(i64 80, ptr nonnull %4) #19
  call void @llvm.lifetime.start.p0(i64 24, ptr nonnull %5) #19
  %20 = call i32 @H5_timer_init(ptr noundef nonnull %4) #19
  %21 = getelementptr inbounds nuw i8, ptr %0, i64 1272
  %22 = load i64, ptr %21, align 8, !tbaa !37
  %23 = and i64 %22, 65536
  %.not29 = icmp eq i64 %23, 0
  br i1 %.not29, label %26, label %24

24:                                               ; preds = %19
  %25 = call i32 @H5_timer_start(ptr noundef nonnull %4) #19
  br label %26

26:                                               ; preds = %24, %19
  %27 = getelementptr inbounds nuw i8, ptr %0, i64 80
  %28 = load i32, ptr %27, align 8, !tbaa !23
  %29 = load i64, ptr %13, align 8, !tbaa !57
  %30 = call i32 @ftruncate64(i32 noundef %28, i64 noundef %29) #19
  %31 = icmp eq i32 %30, -1
  br i1 %31, label %32, label %39

32:                                               ; preds = %26
  %33 = tail call ptr @__errno_location() #21
  %34 = load i32, ptr %33, align 4, !tbaa !21
  %35 = load i64, ptr @H5E_IO_g, align 8, !tbaa !10
  %36 = load i64, ptr @H5E_SEEKERROR_g, align 8, !tbaa !10
  %37 = call ptr @strerror(i32 noundef %34) #19
  %38 = call i32 (ptr, ptr, i32, i64, i64, ptr, ...) @H5E_printf_stack(ptr noundef nonnull @.str, ptr noundef nonnull @__func__.H5FD__log_truncate, i32 noundef 1564, i64 noundef %35, i64 noundef %36, ptr noundef nonnull @.str.14, ptr noundef nonnull @.str.64, i32 noundef %34, ptr noundef %37) #19
  br label %81

39:                                               ; preds = %26
  %40 = load i64, ptr %21, align 8, !tbaa !37
  %41 = and i64 %40, 65536
  %.not30 = icmp eq i64 %41, 0
  br i1 %.not30, label %44, label %42

42:                                               ; preds = %39
  %43 = call i32 @H5_timer_stop(ptr noundef nonnull %4) #19
  %.pre = load i64, ptr %21, align 8, !tbaa !37
  br label %44

44:                                               ; preds = %42, %39
  %45 = phi i64 [ %.pre, %42 ], [ %40, %39 ]
  %46 = and i64 %45, 1024
  %.not31 = icmp eq i64 %46, 0
  br i1 %.not31, label %51, label %47

47:                                               ; preds = %44
  %48 = getelementptr inbounds nuw i8, ptr %0, i64 1208
  %49 = load i64, ptr %48, align 8, !tbaa !52
  %50 = add i64 %49, 1
  store i64 %50, ptr %48, align 8, !tbaa !52
  br label %51

51:                                               ; preds = %47, %44
  %52 = and i64 %45, 65536
  %.not32 = icmp eq i64 %52, 0
  br i1 %.not32, label %60, label %53

53:                                               ; preds = %51
  %54 = call i32 @H5_timer_get_times(ptr noundef nonnull byval(%struct.H5_timer_t) align 8 %4, ptr noundef nonnull %5) #19
  %55 = getelementptr inbounds nuw i8, ptr %5, i64 16
  %56 = load double, ptr %55, align 8, !tbaa !46
  %57 = getelementptr inbounds nuw i8, ptr %0, i64 1240
  %58 = load double, ptr %57, align 8, !tbaa !56
  %59 = fadd double %56, %58
  store double %59, ptr %57, align 8, !tbaa !56
  %.pre35 = load i64, ptr %21, align 8, !tbaa !37
  br label %60

60:                                               ; preds = %53, %51
  %61 = phi i64 [ %.pre35, %53 ], [ %45, %51 ]
  %62 = and i64 %61, 1
  %.not33 = icmp eq i64 %62, 0
  br i1 %.not33, label %78, label %63

63:                                               ; preds = %60
  %64 = getelementptr inbounds nuw i8, ptr %0, i64 1256
  %65 = load ptr, ptr %64, align 8, !tbaa !45
  %66 = load i64, ptr %13, align 8, !tbaa !57
  %67 = call i32 (ptr, ptr, ...) @fprintf(ptr noundef %65, ptr noundef nonnull @.str.65, i64 noundef %66) #19
  %68 = load i64, ptr %21, align 8, !tbaa !37
  %69 = and i64 %68, 65536
  %.not34 = icmp eq i64 %69, 0
  %70 = load ptr, ptr %64, align 8, !tbaa !45
  br i1 %.not34, label %77, label %71

71:                                               ; preds = %63
  %72 = getelementptr inbounds nuw i8, ptr %5, i64 16
  %73 = load double, ptr %72, align 8, !tbaa !46
  %74 = getelementptr inbounds nuw i8, ptr %4, i64 16
  %75 = load double, ptr %74, align 8, !tbaa !68
  %76 = call i32 (ptr, ptr, ...) @fprintf(ptr noundef %70, ptr noundef nonnull @.str.57, double noundef %73, double noundef %75) #19
  br label %78

77:                                               ; preds = %63
  %fputc = call i32 @fputc(i32 10, ptr %70)
  br label %78

78:                                               ; preds = %71, %77, %60
  %79 = load i64, ptr %13, align 8, !tbaa !57
  %80 = getelementptr inbounds nuw i8, ptr %0, i64 96
  store i64 %79, ptr %80, align 8, !tbaa !32
  br label %81

81:                                               ; preds = %32, %78
  %.2 = phi i32 [ 0, %78 ], [ -1, %32 ]
  call void @llvm.lifetime.end.p0(i64 24, ptr nonnull %5) #19
  call void @llvm.lifetime.end.p0(i64 80, ptr nonnull %4) #19
  br label %82

82:                                               ; preds = %81, %3, %15
  %.026 = phi i32 [ 0, %15 ], [ %.2, %81 ], [ 0, %3 ]
  ret i32 %.026
}